ARM GAS  C:\Users\ADMINI~1\AppData\Local\Temp\ccoNFNvc.s 			page 1


   1              		.cpu cortex-m3
   2              		.arch armv7-m
   3              		.fpu softvfp
   4              		.eabi_attribute 20, 1
   5              		.eabi_attribute 21, 1
   6              		.eabi_attribute 23, 3
   7              		.eabi_attribute 24, 1
   8              		.eabi_attribute 25, 1
   9              		.eabi_attribute 26, 1
  10              		.eabi_attribute 30, 1
  11              		.eabi_attribute 34, 1
  12              		.eabi_attribute 18, 4
  13              		.file	"main.c"
  14              		.text
  15              	.Ltext0:
  16              		.cfi_sections	.debug_frame
  17              		.section	.text.MX_GPIO_Init,"ax",%progbits
  18              		.align	1
  19              		.syntax unified
  20              		.thumb
  21              		.thumb_func
  23              	MX_GPIO_Init:
  24              	.LFB68:
  25              		.file 1 "Core/Src/main.c"
   1:Core/Src/main.c **** /* USER CODE BEGIN Header */
   2:Core/Src/main.c **** /**
   3:Core/Src/main.c ****   ******************************************************************************
   4:Core/Src/main.c ****   * @file           : main.c
   5:Core/Src/main.c ****   * @brief          : Main program body
   6:Core/Src/main.c ****   ******************************************************************************
   7:Core/Src/main.c ****   * @attention
   8:Core/Src/main.c ****   *
   9:Core/Src/main.c ****   * Copyright (c) 2021 STMicroelectronics.
  10:Core/Src/main.c ****   * All rights reserved.
  11:Core/Src/main.c ****   *
  12:Core/Src/main.c ****   * This software is licensed under terms that can be found in the LICENSE file
  13:Core/Src/main.c ****   * in the root directory of this software component.
  14:Core/Src/main.c ****   * If no LICENSE file comes with this software, it is provided AS-IS.
  15:Core/Src/main.c ****   *
  16:Core/Src/main.c ****   ******************************************************************************
  17:Core/Src/main.c ****   */
  18:Core/Src/main.c **** /* USER CODE END Header */
  19:Core/Src/main.c **** /* Includes ------------------------------------------------------------------*/
  20:Core/Src/main.c **** #include "main.h"
  21:Core/Src/main.c **** 
  22:Core/Src/main.c **** /* Private includes ----------------------------------------------------------*/
  23:Core/Src/main.c **** /* USER CODE BEGIN Includes */
  24:Core/Src/main.c **** 
  25:Core/Src/main.c **** /* USER CODE END Includes */
  26:Core/Src/main.c **** 
  27:Core/Src/main.c **** /* Private typedef -----------------------------------------------------------*/
  28:Core/Src/main.c **** /* USER CODE BEGIN PTD */
  29:Core/Src/main.c **** 
  30:Core/Src/main.c **** /* USER CODE END PTD */
  31:Core/Src/main.c **** 
  32:Core/Src/main.c **** /* Private define ------------------------------------------------------------*/
  33:Core/Src/main.c **** /* USER CODE BEGIN PD */
ARM GAS  C:\Users\ADMINI~1\AppData\Local\Temp\ccoNFNvc.s 			page 2


  34:Core/Src/main.c **** /* USER CODE END PD */
  35:Core/Src/main.c **** 
  36:Core/Src/main.c **** /* Private macro -------------------------------------------------------------*/
  37:Core/Src/main.c **** /* USER CODE BEGIN PM */
  38:Core/Src/main.c **** 
  39:Core/Src/main.c **** /* USER CODE END PM */
  40:Core/Src/main.c **** 
  41:Core/Src/main.c **** /* Private variables ---------------------------------------------------------*/
  42:Core/Src/main.c **** UART_HandleTypeDef huart1;
  43:Core/Src/main.c **** 
  44:Core/Src/main.c **** /* USER CODE BEGIN PV */
  45:Core/Src/main.c **** 
  46:Core/Src/main.c **** /* USER CODE END PV */
  47:Core/Src/main.c **** 
  48:Core/Src/main.c **** /* Private function prototypes -----------------------------------------------*/
  49:Core/Src/main.c **** void SystemClock_Config(void);
  50:Core/Src/main.c **** static void MX_GPIO_Init(void);
  51:Core/Src/main.c **** static void MX_USART1_UART_Init(void);
  52:Core/Src/main.c **** /* USER CODE BEGIN PFP */
  53:Core/Src/main.c **** 
  54:Core/Src/main.c **** /* USER CODE END PFP */
  55:Core/Src/main.c **** 
  56:Core/Src/main.c **** /* Private user code ---------------------------------------------------------*/
  57:Core/Src/main.c **** /* USER CODE BEGIN 0 */
  58:Core/Src/main.c **** 
  59:Core/Src/main.c **** /* USER CODE END 0 */
  60:Core/Src/main.c **** 
  61:Core/Src/main.c **** /**
  62:Core/Src/main.c ****   * @brief  The application entry point.
  63:Core/Src/main.c ****   * @retval int
  64:Core/Src/main.c ****   */
  65:Core/Src/main.c **** int main(void)
  66:Core/Src/main.c **** {
  67:Core/Src/main.c ****   /* USER CODE BEGIN 1 */
  68:Core/Src/main.c **** 
  69:Core/Src/main.c ****   /* USER CODE END 1 */
  70:Core/Src/main.c **** 
  71:Core/Src/main.c ****   /* MCU Configuration--------------------------------------------------------*/
  72:Core/Src/main.c **** 
  73:Core/Src/main.c ****   /* Reset of all peripherals, Initializes the Flash interface and the Systick. */
  74:Core/Src/main.c ****   HAL_Init();
  75:Core/Src/main.c **** 
  76:Core/Src/main.c ****   /* USER CODE BEGIN Init */
  77:Core/Src/main.c **** 
  78:Core/Src/main.c ****   /* USER CODE END Init */
  79:Core/Src/main.c **** 
  80:Core/Src/main.c ****   /* Configure the system clock */
  81:Core/Src/main.c ****   SystemClock_Config();
  82:Core/Src/main.c **** 
  83:Core/Src/main.c ****   /* USER CODE BEGIN SysInit */
  84:Core/Src/main.c **** 
  85:Core/Src/main.c ****   /* USER CODE END SysInit */
  86:Core/Src/main.c **** 
  87:Core/Src/main.c ****   /* Initialize all configured peripherals */
  88:Core/Src/main.c ****   MX_GPIO_Init();
  89:Core/Src/main.c ****   MX_USART1_UART_Init();
  90:Core/Src/main.c ****   /* USER CODE BEGIN 2 */
ARM GAS  C:\Users\ADMINI~1\AppData\Local\Temp\ccoNFNvc.s 			page 3


  91:Core/Src/main.c **** 
  92:Core/Src/main.c ****   /* USER CODE END 2 */
  93:Core/Src/main.c **** 
  94:Core/Src/main.c ****   /* Infinite loop */
  95:Core/Src/main.c ****   /* USER CODE BEGIN WHILE */
  96:Core/Src/main.c ****   while (1)
  97:Core/Src/main.c ****   {
  98:Core/Src/main.c ****     /* USER CODE END WHILE */
  99:Core/Src/main.c ****     HAL_GPIO_TogglePin(GPIOA,GPIO_PIN_8);
 100:Core/Src/main.c ****     HAL_Delay(500);
 101:Core/Src/main.c ****     /* USER CODE BEGIN 3 */
 102:Core/Src/main.c ****   }
 103:Core/Src/main.c ****   /* USER CODE END 3 */
 104:Core/Src/main.c **** }
 105:Core/Src/main.c **** 
 106:Core/Src/main.c **** /**
 107:Core/Src/main.c ****   * @brief System Clock Configuration
 108:Core/Src/main.c ****   * @retval None
 109:Core/Src/main.c ****   */
 110:Core/Src/main.c **** void SystemClock_Config(void)
 111:Core/Src/main.c **** {
 112:Core/Src/main.c ****   RCC_OscInitTypeDef RCC_OscInitStruct = {0};
 113:Core/Src/main.c ****   RCC_ClkInitTypeDef RCC_ClkInitStruct = {0};
 114:Core/Src/main.c **** 
 115:Core/Src/main.c ****   /** Initializes the RCC Oscillators according to the specified parameters
 116:Core/Src/main.c ****   * in the RCC_OscInitTypeDef structure.
 117:Core/Src/main.c ****   */
 118:Core/Src/main.c ****   RCC_OscInitStruct.OscillatorType = RCC_OSCILLATORTYPE_HSE;
 119:Core/Src/main.c ****   RCC_OscInitStruct.HSEState = RCC_HSE_ON;
 120:Core/Src/main.c ****   RCC_OscInitStruct.HSEPredivValue = RCC_HSE_PREDIV_DIV1;
 121:Core/Src/main.c ****   RCC_OscInitStruct.HSIState = RCC_HSI_ON;
 122:Core/Src/main.c ****   RCC_OscInitStruct.PLL.PLLState = RCC_PLL_ON;
 123:Core/Src/main.c ****   RCC_OscInitStruct.PLL.PLLSource = RCC_PLLSOURCE_HSE;
 124:Core/Src/main.c ****   RCC_OscInitStruct.PLL.PLLMUL = RCC_PLL_MUL9;
 125:Core/Src/main.c ****   if (HAL_RCC_OscConfig(&RCC_OscInitStruct) != HAL_OK)
 126:Core/Src/main.c ****   {
 127:Core/Src/main.c ****     Error_Handler();
 128:Core/Src/main.c ****   }
 129:Core/Src/main.c ****   /** Initializes the CPU, AHB and APB buses clocks
 130:Core/Src/main.c ****   */
 131:Core/Src/main.c ****   RCC_ClkInitStruct.ClockType = RCC_CLOCKTYPE_HCLK|RCC_CLOCKTYPE_SYSCLK
 132:Core/Src/main.c ****                               |RCC_CLOCKTYPE_PCLK1|RCC_CLOCKTYPE_PCLK2;
 133:Core/Src/main.c ****   RCC_ClkInitStruct.SYSCLKSource = RCC_SYSCLKSOURCE_PLLCLK;
 134:Core/Src/main.c ****   RCC_ClkInitStruct.AHBCLKDivider = RCC_SYSCLK_DIV1;
 135:Core/Src/main.c ****   RCC_ClkInitStruct.APB1CLKDivider = RCC_HCLK_DIV2;
 136:Core/Src/main.c ****   RCC_ClkInitStruct.APB2CLKDivider = RCC_HCLK_DIV1;
 137:Core/Src/main.c **** 
 138:Core/Src/main.c ****   if (HAL_RCC_ClockConfig(&RCC_ClkInitStruct, FLASH_LATENCY_2) != HAL_OK)
 139:Core/Src/main.c ****   {
 140:Core/Src/main.c ****     Error_Handler();
 141:Core/Src/main.c ****   }
 142:Core/Src/main.c **** }
 143:Core/Src/main.c **** 
 144:Core/Src/main.c **** /**
 145:Core/Src/main.c ****   * @brief USART1 Initialization Function
 146:Core/Src/main.c ****   * @param None
 147:Core/Src/main.c ****   * @retval None
ARM GAS  C:\Users\ADMINI~1\AppData\Local\Temp\ccoNFNvc.s 			page 4


 148:Core/Src/main.c ****   */
 149:Core/Src/main.c **** static void MX_USART1_UART_Init(void)
 150:Core/Src/main.c **** {
 151:Core/Src/main.c **** 
 152:Core/Src/main.c ****   /* USER CODE BEGIN USART1_Init 0 */
 153:Core/Src/main.c **** 
 154:Core/Src/main.c ****   /* USER CODE END USART1_Init 0 */
 155:Core/Src/main.c **** 
 156:Core/Src/main.c ****   /* USER CODE BEGIN USART1_Init 1 */
 157:Core/Src/main.c **** 
 158:Core/Src/main.c ****   /* USER CODE END USART1_Init 1 */
 159:Core/Src/main.c ****   huart1.Instance = USART1;
 160:Core/Src/main.c ****   huart1.Init.BaudRate = 115200;
 161:Core/Src/main.c ****   huart1.Init.WordLength = UART_WORDLENGTH_8B;
 162:Core/Src/main.c ****   huart1.Init.StopBits = UART_STOPBITS_1;
 163:Core/Src/main.c ****   huart1.Init.Parity = UART_PARITY_NONE;
 164:Core/Src/main.c ****   huart1.Init.Mode = UART_MODE_TX_RX;
 165:Core/Src/main.c ****   huart1.Init.HwFlowCtl = UART_HWCONTROL_NONE;
 166:Core/Src/main.c ****   huart1.Init.OverSampling = UART_OVERSAMPLING_16;
 167:Core/Src/main.c ****   if (HAL_UART_Init(&huart1) != HAL_OK)
 168:Core/Src/main.c ****   {
 169:Core/Src/main.c ****     Error_Handler();
 170:Core/Src/main.c ****   }
 171:Core/Src/main.c ****   /* USER CODE BEGIN USART1_Init 2 */
 172:Core/Src/main.c **** 
 173:Core/Src/main.c ****   /* USER CODE END USART1_Init 2 */
 174:Core/Src/main.c **** 
 175:Core/Src/main.c **** }
 176:Core/Src/main.c **** 
 177:Core/Src/main.c **** /**
 178:Core/Src/main.c ****   * @brief GPIO Initialization Function
 179:Core/Src/main.c ****   * @param None
 180:Core/Src/main.c ****   * @retval None
 181:Core/Src/main.c ****   */
 182:Core/Src/main.c **** static void MX_GPIO_Init(void)
 183:Core/Src/main.c **** {
  26              		.loc 1 183 1 view -0
  27              		.cfi_startproc
  28              		@ args = 0, pretend = 0, frame = 32
  29              		@ frame_needed = 0, uses_anonymous_args = 0
  30 0000 2DE9F041 		push	{r4, r5, r6, r7, r8, lr}
  31              	.LCFI0:
  32              		.cfi_def_cfa_offset 24
  33              		.cfi_offset 4, -24
  34              		.cfi_offset 5, -20
  35              		.cfi_offset 6, -16
  36              		.cfi_offset 7, -12
  37              		.cfi_offset 8, -8
  38              		.cfi_offset 14, -4
  39 0004 88B0     		sub	sp, sp, #32
  40              	.LCFI1:
  41              		.cfi_def_cfa_offset 56
 184:Core/Src/main.c ****   GPIO_InitTypeDef GPIO_InitStruct = {0};
  42              		.loc 1 184 3 view .LVU1
  43              		.loc 1 184 20 is_stmt 0 view .LVU2
  44 0006 0024     		movs	r4, #0
  45 0008 0494     		str	r4, [sp, #16]
ARM GAS  C:\Users\ADMINI~1\AppData\Local\Temp\ccoNFNvc.s 			page 5


  46 000a 0594     		str	r4, [sp, #20]
  47 000c 0694     		str	r4, [sp, #24]
  48 000e 0794     		str	r4, [sp, #28]
 185:Core/Src/main.c **** 
 186:Core/Src/main.c ****   /* GPIO Ports Clock Enable */
 187:Core/Src/main.c ****   __HAL_RCC_GPIOC_CLK_ENABLE();
  49              		.loc 1 187 3 is_stmt 1 view .LVU3
  50              	.LBB4:
  51              		.loc 1 187 3 view .LVU4
  52              		.loc 1 187 3 view .LVU5
  53 0010 204B     		ldr	r3, .L3
  54 0012 9A69     		ldr	r2, [r3, #24]
  55 0014 42F01002 		orr	r2, r2, #16
  56 0018 9A61     		str	r2, [r3, #24]
  57              		.loc 1 187 3 view .LVU6
  58 001a 9A69     		ldr	r2, [r3, #24]
  59 001c 02F01002 		and	r2, r2, #16
  60 0020 0192     		str	r2, [sp, #4]
  61              		.loc 1 187 3 view .LVU7
  62 0022 019A     		ldr	r2, [sp, #4]
  63              	.LBE4:
  64              		.loc 1 187 3 view .LVU8
 188:Core/Src/main.c ****   __HAL_RCC_GPIOD_CLK_ENABLE();
  65              		.loc 1 188 3 view .LVU9
  66              	.LBB5:
  67              		.loc 1 188 3 view .LVU10
  68              		.loc 1 188 3 view .LVU11
  69 0024 9A69     		ldr	r2, [r3, #24]
  70 0026 42F02002 		orr	r2, r2, #32
  71 002a 9A61     		str	r2, [r3, #24]
  72              		.loc 1 188 3 view .LVU12
  73 002c 9A69     		ldr	r2, [r3, #24]
  74 002e 02F02002 		and	r2, r2, #32
  75 0032 0292     		str	r2, [sp, #8]
  76              		.loc 1 188 3 view .LVU13
  77 0034 029A     		ldr	r2, [sp, #8]
  78              	.LBE5:
  79              		.loc 1 188 3 view .LVU14
 189:Core/Src/main.c ****   __HAL_RCC_GPIOA_CLK_ENABLE();
  80              		.loc 1 189 3 view .LVU15
  81              	.LBB6:
  82              		.loc 1 189 3 view .LVU16
  83              		.loc 1 189 3 view .LVU17
  84 0036 9A69     		ldr	r2, [r3, #24]
  85 0038 42F00402 		orr	r2, r2, #4
  86 003c 9A61     		str	r2, [r3, #24]
  87              		.loc 1 189 3 view .LVU18
  88 003e 9B69     		ldr	r3, [r3, #24]
  89 0040 03F00403 		and	r3, r3, #4
  90 0044 0393     		str	r3, [sp, #12]
  91              		.loc 1 189 3 view .LVU19
  92 0046 039B     		ldr	r3, [sp, #12]
  93              	.LBE6:
  94              		.loc 1 189 3 view .LVU20
 190:Core/Src/main.c **** 
 191:Core/Src/main.c ****   /*Configure GPIO pin Output Level */
 192:Core/Src/main.c ****   HAL_GPIO_WritePin(GPIOA, GPIO_PIN_8, GPIO_PIN_SET);
ARM GAS  C:\Users\ADMINI~1\AppData\Local\Temp\ccoNFNvc.s 			page 6


  95              		.loc 1 192 3 view .LVU21
  96 0048 DFF84C80 		ldr	r8, .L3+4
  97 004c 0122     		movs	r2, #1
  98 004e 4FF48071 		mov	r1, #256
  99 0052 4046     		mov	r0, r8
 100 0054 FFF7FEFF 		bl	HAL_GPIO_WritePin
 101              	.LVL0:
 193:Core/Src/main.c **** 
 194:Core/Src/main.c ****   /*Configure GPIO pin Output Level */
 195:Core/Src/main.c ****   HAL_GPIO_WritePin(GPIOD, GPIO_PIN_2, GPIO_PIN_SET);
 102              		.loc 1 195 3 view .LVU22
 103 0058 104D     		ldr	r5, .L3+8
 104 005a 0122     		movs	r2, #1
 105 005c 0421     		movs	r1, #4
 106 005e 2846     		mov	r0, r5
 107 0060 FFF7FEFF 		bl	HAL_GPIO_WritePin
 108              	.LVL1:
 196:Core/Src/main.c **** 
 197:Core/Src/main.c ****   /*Configure GPIO pin : PA8 */
 198:Core/Src/main.c ****   GPIO_InitStruct.Pin = GPIO_PIN_8;
 109              		.loc 1 198 3 view .LVU23
 110              		.loc 1 198 23 is_stmt 0 view .LVU24
 111 0064 4FF48073 		mov	r3, #256
 112 0068 0493     		str	r3, [sp, #16]
 199:Core/Src/main.c ****   GPIO_InitStruct.Mode = GPIO_MODE_OUTPUT_PP;
 113              		.loc 1 199 3 is_stmt 1 view .LVU25
 114              		.loc 1 199 24 is_stmt 0 view .LVU26
 115 006a 0127     		movs	r7, #1
 116 006c 0597     		str	r7, [sp, #20]
 200:Core/Src/main.c ****   GPIO_InitStruct.Pull = GPIO_NOPULL;
 117              		.loc 1 200 3 is_stmt 1 view .LVU27
 118              		.loc 1 200 24 is_stmt 0 view .LVU28
 119 006e 0694     		str	r4, [sp, #24]
 201:Core/Src/main.c ****   GPIO_InitStruct.Speed = GPIO_SPEED_FREQ_HIGH;
 120              		.loc 1 201 3 is_stmt 1 view .LVU29
 121              		.loc 1 201 25 is_stmt 0 view .LVU30
 122 0070 0326     		movs	r6, #3
 123 0072 0796     		str	r6, [sp, #28]
 202:Core/Src/main.c ****   HAL_GPIO_Init(GPIOA, &GPIO_InitStruct);
 124              		.loc 1 202 3 is_stmt 1 view .LVU31
 125 0074 04A9     		add	r1, sp, #16
 126 0076 4046     		mov	r0, r8
 127 0078 FFF7FEFF 		bl	HAL_GPIO_Init
 128              	.LVL2:
 203:Core/Src/main.c **** 
 204:Core/Src/main.c ****   /*Configure GPIO pin : PD2 */
 205:Core/Src/main.c ****   GPIO_InitStruct.Pin = GPIO_PIN_2;
 129              		.loc 1 205 3 view .LVU32
 130              		.loc 1 205 23 is_stmt 0 view .LVU33
 131 007c 0423     		movs	r3, #4
 132 007e 0493     		str	r3, [sp, #16]
 206:Core/Src/main.c ****   GPIO_InitStruct.Mode = GPIO_MODE_OUTPUT_PP;
 133              		.loc 1 206 3 is_stmt 1 view .LVU34
 134              		.loc 1 206 24 is_stmt 0 view .LVU35
 135 0080 0597     		str	r7, [sp, #20]
 207:Core/Src/main.c ****   GPIO_InitStruct.Pull = GPIO_NOPULL;
 136              		.loc 1 207 3 is_stmt 1 view .LVU36
ARM GAS  C:\Users\ADMINI~1\AppData\Local\Temp\ccoNFNvc.s 			page 7


 137              		.loc 1 207 24 is_stmt 0 view .LVU37
 138 0082 0694     		str	r4, [sp, #24]
 208:Core/Src/main.c ****   GPIO_InitStruct.Speed = GPIO_SPEED_FREQ_HIGH;
 139              		.loc 1 208 3 is_stmt 1 view .LVU38
 140              		.loc 1 208 25 is_stmt 0 view .LVU39
 141 0084 0796     		str	r6, [sp, #28]
 209:Core/Src/main.c ****   HAL_GPIO_Init(GPIOD, &GPIO_InitStruct);
 142              		.loc 1 209 3 is_stmt 1 view .LVU40
 143 0086 04A9     		add	r1, sp, #16
 144 0088 2846     		mov	r0, r5
 145 008a FFF7FEFF 		bl	HAL_GPIO_Init
 146              	.LVL3:
 210:Core/Src/main.c **** 
 211:Core/Src/main.c **** }
 147              		.loc 1 211 1 is_stmt 0 view .LVU41
 148 008e 08B0     		add	sp, sp, #32
 149              	.LCFI2:
 150              		.cfi_def_cfa_offset 24
 151              		@ sp needed
 152 0090 BDE8F081 		pop	{r4, r5, r6, r7, r8, pc}
 153              	.L4:
 154              		.align	2
 155              	.L3:
 156 0094 00100240 		.word	1073876992
 157 0098 00080140 		.word	1073809408
 158 009c 00140140 		.word	1073812480
 159              		.cfi_endproc
 160              	.LFE68:
 162              		.section	.text.Error_Handler,"ax",%progbits
 163              		.align	1
 164              		.global	Error_Handler
 165              		.syntax unified
 166              		.thumb
 167              		.thumb_func
 169              	Error_Handler:
 170              	.LFB69:
 212:Core/Src/main.c **** 
 213:Core/Src/main.c **** /* USER CODE BEGIN 4 */
 214:Core/Src/main.c **** 
 215:Core/Src/main.c **** /* USER CODE END 4 */
 216:Core/Src/main.c **** 
 217:Core/Src/main.c **** /**
 218:Core/Src/main.c ****   * @brief  This function is executed in case of error occurrence.
 219:Core/Src/main.c ****   * @retval None
 220:Core/Src/main.c ****   */
 221:Core/Src/main.c **** void Error_Handler(void)
 222:Core/Src/main.c **** {
 171              		.loc 1 222 1 is_stmt 1 view -0
 172              		.cfi_startproc
 173              		@ Volatile: function does not return.
 174              		@ args = 0, pretend = 0, frame = 0
 175              		@ frame_needed = 0, uses_anonymous_args = 0
 176              		@ link register save eliminated.
 223:Core/Src/main.c ****   /* USER CODE BEGIN Error_Handler_Debug */
 224:Core/Src/main.c ****   /* User can add his own implementation to report the HAL error return state */
 225:Core/Src/main.c ****   __disable_irq();
 177              		.loc 1 225 3 view .LVU43
ARM GAS  C:\Users\ADMINI~1\AppData\Local\Temp\ccoNFNvc.s 			page 8


 178              	.LBB7:
 179              	.LBI7:
 180              		.file 2 "Drivers/CMSIS/Include/cmsis_gcc.h"
   1:Drivers/CMSIS/Include/cmsis_gcc.h **** /**************************************************************************//**
   2:Drivers/CMSIS/Include/cmsis_gcc.h ****  * @file     cmsis_gcc.h
   3:Drivers/CMSIS/Include/cmsis_gcc.h ****  * @brief    CMSIS compiler GCC header file
   4:Drivers/CMSIS/Include/cmsis_gcc.h ****  * @version  V5.0.4
   5:Drivers/CMSIS/Include/cmsis_gcc.h ****  * @date     09. April 2018
   6:Drivers/CMSIS/Include/cmsis_gcc.h ****  ******************************************************************************/
   7:Drivers/CMSIS/Include/cmsis_gcc.h **** /*
   8:Drivers/CMSIS/Include/cmsis_gcc.h ****  * Copyright (c) 2009-2018 Arm Limited. All rights reserved.
   9:Drivers/CMSIS/Include/cmsis_gcc.h ****  *
  10:Drivers/CMSIS/Include/cmsis_gcc.h ****  * SPDX-License-Identifier: Apache-2.0
  11:Drivers/CMSIS/Include/cmsis_gcc.h ****  *
  12:Drivers/CMSIS/Include/cmsis_gcc.h ****  * Licensed under the Apache License, Version 2.0 (the License); you may
  13:Drivers/CMSIS/Include/cmsis_gcc.h ****  * not use this file except in compliance with the License.
  14:Drivers/CMSIS/Include/cmsis_gcc.h ****  * You may obtain a copy of the License at
  15:Drivers/CMSIS/Include/cmsis_gcc.h ****  *
  16:Drivers/CMSIS/Include/cmsis_gcc.h ****  * www.apache.org/licenses/LICENSE-2.0
  17:Drivers/CMSIS/Include/cmsis_gcc.h ****  *
  18:Drivers/CMSIS/Include/cmsis_gcc.h ****  * Unless required by applicable law or agreed to in writing, software
  19:Drivers/CMSIS/Include/cmsis_gcc.h ****  * distributed under the License is distributed on an AS IS BASIS, WITHOUT
  20:Drivers/CMSIS/Include/cmsis_gcc.h ****  * WARRANTIES OR CONDITIONS OF ANY KIND, either express or implied.
  21:Drivers/CMSIS/Include/cmsis_gcc.h ****  * See the License for the specific language governing permissions and
  22:Drivers/CMSIS/Include/cmsis_gcc.h ****  * limitations under the License.
  23:Drivers/CMSIS/Include/cmsis_gcc.h ****  */
  24:Drivers/CMSIS/Include/cmsis_gcc.h **** 
  25:Drivers/CMSIS/Include/cmsis_gcc.h **** #ifndef __CMSIS_GCC_H
  26:Drivers/CMSIS/Include/cmsis_gcc.h **** #define __CMSIS_GCC_H
  27:Drivers/CMSIS/Include/cmsis_gcc.h **** 
  28:Drivers/CMSIS/Include/cmsis_gcc.h **** /* ignore some GCC warnings */
  29:Drivers/CMSIS/Include/cmsis_gcc.h **** #pragma GCC diagnostic push
  30:Drivers/CMSIS/Include/cmsis_gcc.h **** #pragma GCC diagnostic ignored "-Wsign-conversion"
  31:Drivers/CMSIS/Include/cmsis_gcc.h **** #pragma GCC diagnostic ignored "-Wconversion"
  32:Drivers/CMSIS/Include/cmsis_gcc.h **** #pragma GCC diagnostic ignored "-Wunused-parameter"
  33:Drivers/CMSIS/Include/cmsis_gcc.h **** 
  34:Drivers/CMSIS/Include/cmsis_gcc.h **** /* Fallback for __has_builtin */
  35:Drivers/CMSIS/Include/cmsis_gcc.h **** #ifndef __has_builtin
  36:Drivers/CMSIS/Include/cmsis_gcc.h ****   #define __has_builtin(x) (0)
  37:Drivers/CMSIS/Include/cmsis_gcc.h **** #endif
  38:Drivers/CMSIS/Include/cmsis_gcc.h **** 
  39:Drivers/CMSIS/Include/cmsis_gcc.h **** /* CMSIS compiler specific defines */
  40:Drivers/CMSIS/Include/cmsis_gcc.h **** #ifndef   __ASM
  41:Drivers/CMSIS/Include/cmsis_gcc.h ****   #define __ASM                                  __asm
  42:Drivers/CMSIS/Include/cmsis_gcc.h **** #endif
  43:Drivers/CMSIS/Include/cmsis_gcc.h **** #ifndef   __INLINE
  44:Drivers/CMSIS/Include/cmsis_gcc.h ****   #define __INLINE                               inline
  45:Drivers/CMSIS/Include/cmsis_gcc.h **** #endif
  46:Drivers/CMSIS/Include/cmsis_gcc.h **** #ifndef   __STATIC_INLINE
  47:Drivers/CMSIS/Include/cmsis_gcc.h ****   #define __STATIC_INLINE                        static inline
  48:Drivers/CMSIS/Include/cmsis_gcc.h **** #endif
  49:Drivers/CMSIS/Include/cmsis_gcc.h **** #ifndef   __STATIC_FORCEINLINE                 
  50:Drivers/CMSIS/Include/cmsis_gcc.h ****   #define __STATIC_FORCEINLINE                   __attribute__((always_inline)) static inline
  51:Drivers/CMSIS/Include/cmsis_gcc.h **** #endif                                           
  52:Drivers/CMSIS/Include/cmsis_gcc.h **** #ifndef   __NO_RETURN
  53:Drivers/CMSIS/Include/cmsis_gcc.h ****   #define __NO_RETURN                            __attribute__((__noreturn__))
  54:Drivers/CMSIS/Include/cmsis_gcc.h **** #endif
ARM GAS  C:\Users\ADMINI~1\AppData\Local\Temp\ccoNFNvc.s 			page 9


  55:Drivers/CMSIS/Include/cmsis_gcc.h **** #ifndef   __USED
  56:Drivers/CMSIS/Include/cmsis_gcc.h ****   #define __USED                                 __attribute__((used))
  57:Drivers/CMSIS/Include/cmsis_gcc.h **** #endif
  58:Drivers/CMSIS/Include/cmsis_gcc.h **** #ifndef   __WEAK
  59:Drivers/CMSIS/Include/cmsis_gcc.h ****   #define __WEAK                                 __attribute__((weak))
  60:Drivers/CMSIS/Include/cmsis_gcc.h **** #endif
  61:Drivers/CMSIS/Include/cmsis_gcc.h **** #ifndef   __PACKED
  62:Drivers/CMSIS/Include/cmsis_gcc.h ****   #define __PACKED                               __attribute__((packed, aligned(1)))
  63:Drivers/CMSIS/Include/cmsis_gcc.h **** #endif
  64:Drivers/CMSIS/Include/cmsis_gcc.h **** #ifndef   __PACKED_STRUCT
  65:Drivers/CMSIS/Include/cmsis_gcc.h ****   #define __PACKED_STRUCT                        struct __attribute__((packed, aligned(1)))
  66:Drivers/CMSIS/Include/cmsis_gcc.h **** #endif
  67:Drivers/CMSIS/Include/cmsis_gcc.h **** #ifndef   __PACKED_UNION
  68:Drivers/CMSIS/Include/cmsis_gcc.h ****   #define __PACKED_UNION                         union __attribute__((packed, aligned(1)))
  69:Drivers/CMSIS/Include/cmsis_gcc.h **** #endif
  70:Drivers/CMSIS/Include/cmsis_gcc.h **** #ifndef   __UNALIGNED_UINT32        /* deprecated */
  71:Drivers/CMSIS/Include/cmsis_gcc.h ****   #pragma GCC diagnostic push
  72:Drivers/CMSIS/Include/cmsis_gcc.h ****   #pragma GCC diagnostic ignored "-Wpacked"
  73:Drivers/CMSIS/Include/cmsis_gcc.h ****   #pragma GCC diagnostic ignored "-Wattributes"
  74:Drivers/CMSIS/Include/cmsis_gcc.h ****   struct __attribute__((packed)) T_UINT32 { uint32_t v; };
  75:Drivers/CMSIS/Include/cmsis_gcc.h ****   #pragma GCC diagnostic pop
  76:Drivers/CMSIS/Include/cmsis_gcc.h ****   #define __UNALIGNED_UINT32(x)                  (((struct T_UINT32 *)(x))->v)
  77:Drivers/CMSIS/Include/cmsis_gcc.h **** #endif
  78:Drivers/CMSIS/Include/cmsis_gcc.h **** #ifndef   __UNALIGNED_UINT16_WRITE
  79:Drivers/CMSIS/Include/cmsis_gcc.h ****   #pragma GCC diagnostic push
  80:Drivers/CMSIS/Include/cmsis_gcc.h ****   #pragma GCC diagnostic ignored "-Wpacked"
  81:Drivers/CMSIS/Include/cmsis_gcc.h ****   #pragma GCC diagnostic ignored "-Wattributes"
  82:Drivers/CMSIS/Include/cmsis_gcc.h ****   __PACKED_STRUCT T_UINT16_WRITE { uint16_t v; };
  83:Drivers/CMSIS/Include/cmsis_gcc.h ****   #pragma GCC diagnostic pop
  84:Drivers/CMSIS/Include/cmsis_gcc.h ****   #define __UNALIGNED_UINT16_WRITE(addr, val)    (void)((((struct T_UINT16_WRITE *)(void *)(addr))-
  85:Drivers/CMSIS/Include/cmsis_gcc.h **** #endif
  86:Drivers/CMSIS/Include/cmsis_gcc.h **** #ifndef   __UNALIGNED_UINT16_READ
  87:Drivers/CMSIS/Include/cmsis_gcc.h ****   #pragma GCC diagnostic push
  88:Drivers/CMSIS/Include/cmsis_gcc.h ****   #pragma GCC diagnostic ignored "-Wpacked"
  89:Drivers/CMSIS/Include/cmsis_gcc.h ****   #pragma GCC diagnostic ignored "-Wattributes"
  90:Drivers/CMSIS/Include/cmsis_gcc.h ****   __PACKED_STRUCT T_UINT16_READ { uint16_t v; };
  91:Drivers/CMSIS/Include/cmsis_gcc.h ****   #pragma GCC diagnostic pop
  92:Drivers/CMSIS/Include/cmsis_gcc.h ****   #define __UNALIGNED_UINT16_READ(addr)          (((const struct T_UINT16_READ *)(const void *)(add
  93:Drivers/CMSIS/Include/cmsis_gcc.h **** #endif
  94:Drivers/CMSIS/Include/cmsis_gcc.h **** #ifndef   __UNALIGNED_UINT32_WRITE
  95:Drivers/CMSIS/Include/cmsis_gcc.h ****   #pragma GCC diagnostic push
  96:Drivers/CMSIS/Include/cmsis_gcc.h ****   #pragma GCC diagnostic ignored "-Wpacked"
  97:Drivers/CMSIS/Include/cmsis_gcc.h ****   #pragma GCC diagnostic ignored "-Wattributes"
  98:Drivers/CMSIS/Include/cmsis_gcc.h ****   __PACKED_STRUCT T_UINT32_WRITE { uint32_t v; };
  99:Drivers/CMSIS/Include/cmsis_gcc.h ****   #pragma GCC diagnostic pop
 100:Drivers/CMSIS/Include/cmsis_gcc.h ****   #define __UNALIGNED_UINT32_WRITE(addr, val)    (void)((((struct T_UINT32_WRITE *)(void *)(addr))-
 101:Drivers/CMSIS/Include/cmsis_gcc.h **** #endif
 102:Drivers/CMSIS/Include/cmsis_gcc.h **** #ifndef   __UNALIGNED_UINT32_READ
 103:Drivers/CMSIS/Include/cmsis_gcc.h ****   #pragma GCC diagnostic push
 104:Drivers/CMSIS/Include/cmsis_gcc.h ****   #pragma GCC diagnostic ignored "-Wpacked"
 105:Drivers/CMSIS/Include/cmsis_gcc.h ****   #pragma GCC diagnostic ignored "-Wattributes"
 106:Drivers/CMSIS/Include/cmsis_gcc.h ****   __PACKED_STRUCT T_UINT32_READ { uint32_t v; };
 107:Drivers/CMSIS/Include/cmsis_gcc.h ****   #pragma GCC diagnostic pop
 108:Drivers/CMSIS/Include/cmsis_gcc.h ****   #define __UNALIGNED_UINT32_READ(addr)          (((const struct T_UINT32_READ *)(const void *)(add
 109:Drivers/CMSIS/Include/cmsis_gcc.h **** #endif
 110:Drivers/CMSIS/Include/cmsis_gcc.h **** #ifndef   __ALIGNED
 111:Drivers/CMSIS/Include/cmsis_gcc.h ****   #define __ALIGNED(x)                           __attribute__((aligned(x)))
ARM GAS  C:\Users\ADMINI~1\AppData\Local\Temp\ccoNFNvc.s 			page 10


 112:Drivers/CMSIS/Include/cmsis_gcc.h **** #endif
 113:Drivers/CMSIS/Include/cmsis_gcc.h **** #ifndef   __RESTRICT
 114:Drivers/CMSIS/Include/cmsis_gcc.h ****   #define __RESTRICT                             __restrict
 115:Drivers/CMSIS/Include/cmsis_gcc.h **** #endif
 116:Drivers/CMSIS/Include/cmsis_gcc.h **** 
 117:Drivers/CMSIS/Include/cmsis_gcc.h **** 
 118:Drivers/CMSIS/Include/cmsis_gcc.h **** /* ###########################  Core Function Access  ########################### */
 119:Drivers/CMSIS/Include/cmsis_gcc.h **** /** \ingroup  CMSIS_Core_FunctionInterface
 120:Drivers/CMSIS/Include/cmsis_gcc.h ****     \defgroup CMSIS_Core_RegAccFunctions CMSIS Core Register Access Functions
 121:Drivers/CMSIS/Include/cmsis_gcc.h ****   @{
 122:Drivers/CMSIS/Include/cmsis_gcc.h ****  */
 123:Drivers/CMSIS/Include/cmsis_gcc.h **** 
 124:Drivers/CMSIS/Include/cmsis_gcc.h **** /**
 125:Drivers/CMSIS/Include/cmsis_gcc.h ****   \brief   Enable IRQ Interrupts
 126:Drivers/CMSIS/Include/cmsis_gcc.h ****   \details Enables IRQ interrupts by clearing the I-bit in the CPSR.
 127:Drivers/CMSIS/Include/cmsis_gcc.h ****            Can only be executed in Privileged modes.
 128:Drivers/CMSIS/Include/cmsis_gcc.h ****  */
 129:Drivers/CMSIS/Include/cmsis_gcc.h **** __STATIC_FORCEINLINE void __enable_irq(void)
 130:Drivers/CMSIS/Include/cmsis_gcc.h **** {
 131:Drivers/CMSIS/Include/cmsis_gcc.h ****   __ASM volatile ("cpsie i" : : : "memory");
 132:Drivers/CMSIS/Include/cmsis_gcc.h **** }
 133:Drivers/CMSIS/Include/cmsis_gcc.h **** 
 134:Drivers/CMSIS/Include/cmsis_gcc.h **** 
 135:Drivers/CMSIS/Include/cmsis_gcc.h **** /**
 136:Drivers/CMSIS/Include/cmsis_gcc.h ****   \brief   Disable IRQ Interrupts
 137:Drivers/CMSIS/Include/cmsis_gcc.h ****   \details Disables IRQ interrupts by setting the I-bit in the CPSR.
 138:Drivers/CMSIS/Include/cmsis_gcc.h ****            Can only be executed in Privileged modes.
 139:Drivers/CMSIS/Include/cmsis_gcc.h ****  */
 140:Drivers/CMSIS/Include/cmsis_gcc.h **** __STATIC_FORCEINLINE void __disable_irq(void)
 181              		.loc 2 140 27 view .LVU44
 182              	.LBB8:
 141:Drivers/CMSIS/Include/cmsis_gcc.h **** {
 142:Drivers/CMSIS/Include/cmsis_gcc.h ****   __ASM volatile ("cpsid i" : : : "memory");
 183              		.loc 2 142 3 view .LVU45
 184              		.syntax unified
 185              	@ 142 "Drivers/CMSIS/Include/cmsis_gcc.h" 1
 186 0000 72B6     		cpsid i
 187              	@ 0 "" 2
 188              		.thumb
 189              		.syntax unified
 190              	.L6:
 191              	.LBE8:
 192              	.LBE7:
 226:Core/Src/main.c ****   while (1)
 193              		.loc 1 226 3 discriminator 1 view .LVU46
 227:Core/Src/main.c ****   {
 228:Core/Src/main.c ****   }
 194              		.loc 1 228 3 discriminator 1 view .LVU47
 226:Core/Src/main.c ****   while (1)
 195              		.loc 1 226 9 discriminator 1 view .LVU48
 196 0002 FEE7     		b	.L6
 197              		.cfi_endproc
 198              	.LFE69:
 200              		.section	.text.MX_USART1_UART_Init,"ax",%progbits
 201              		.align	1
 202              		.syntax unified
 203              		.thumb
ARM GAS  C:\Users\ADMINI~1\AppData\Local\Temp\ccoNFNvc.s 			page 11


 204              		.thumb_func
 206              	MX_USART1_UART_Init:
 207              	.LFB67:
 150:Core/Src/main.c **** 
 208              		.loc 1 150 1 view -0
 209              		.cfi_startproc
 210              		@ args = 0, pretend = 0, frame = 0
 211              		@ frame_needed = 0, uses_anonymous_args = 0
 212 0000 08B5     		push	{r3, lr}
 213              	.LCFI3:
 214              		.cfi_def_cfa_offset 8
 215              		.cfi_offset 3, -8
 216              		.cfi_offset 14, -4
 159:Core/Src/main.c ****   huart1.Init.BaudRate = 115200;
 217              		.loc 1 159 3 view .LVU50
 159:Core/Src/main.c ****   huart1.Init.BaudRate = 115200;
 218              		.loc 1 159 19 is_stmt 0 view .LVU51
 219 0002 0A48     		ldr	r0, .L11
 220 0004 0A4B     		ldr	r3, .L11+4
 221 0006 0360     		str	r3, [r0]
 160:Core/Src/main.c ****   huart1.Init.WordLength = UART_WORDLENGTH_8B;
 222              		.loc 1 160 3 is_stmt 1 view .LVU52
 160:Core/Src/main.c ****   huart1.Init.WordLength = UART_WORDLENGTH_8B;
 223              		.loc 1 160 24 is_stmt 0 view .LVU53
 224 0008 4FF4E133 		mov	r3, #115200
 225 000c 4360     		str	r3, [r0, #4]
 161:Core/Src/main.c ****   huart1.Init.StopBits = UART_STOPBITS_1;
 226              		.loc 1 161 3 is_stmt 1 view .LVU54
 161:Core/Src/main.c ****   huart1.Init.StopBits = UART_STOPBITS_1;
 227              		.loc 1 161 26 is_stmt 0 view .LVU55
 228 000e 0023     		movs	r3, #0
 229 0010 8360     		str	r3, [r0, #8]
 162:Core/Src/main.c ****   huart1.Init.Parity = UART_PARITY_NONE;
 230              		.loc 1 162 3 is_stmt 1 view .LVU56
 162:Core/Src/main.c ****   huart1.Init.Parity = UART_PARITY_NONE;
 231              		.loc 1 162 24 is_stmt 0 view .LVU57
 232 0012 C360     		str	r3, [r0, #12]
 163:Core/Src/main.c ****   huart1.Init.Mode = UART_MODE_TX_RX;
 233              		.loc 1 163 3 is_stmt 1 view .LVU58
 163:Core/Src/main.c ****   huart1.Init.Mode = UART_MODE_TX_RX;
 234              		.loc 1 163 22 is_stmt 0 view .LVU59
 235 0014 0361     		str	r3, [r0, #16]
 164:Core/Src/main.c ****   huart1.Init.HwFlowCtl = UART_HWCONTROL_NONE;
 236              		.loc 1 164 3 is_stmt 1 view .LVU60
 164:Core/Src/main.c ****   huart1.Init.HwFlowCtl = UART_HWCONTROL_NONE;
 237              		.loc 1 164 20 is_stmt 0 view .LVU61
 238 0016 0C22     		movs	r2, #12
 239 0018 4261     		str	r2, [r0, #20]
 165:Core/Src/main.c ****   huart1.Init.OverSampling = UART_OVERSAMPLING_16;
 240              		.loc 1 165 3 is_stmt 1 view .LVU62
 165:Core/Src/main.c ****   huart1.Init.OverSampling = UART_OVERSAMPLING_16;
 241              		.loc 1 165 25 is_stmt 0 view .LVU63
 242 001a 8361     		str	r3, [r0, #24]
 166:Core/Src/main.c ****   if (HAL_UART_Init(&huart1) != HAL_OK)
 243              		.loc 1 166 3 is_stmt 1 view .LVU64
 166:Core/Src/main.c ****   if (HAL_UART_Init(&huart1) != HAL_OK)
 244              		.loc 1 166 28 is_stmt 0 view .LVU65
ARM GAS  C:\Users\ADMINI~1\AppData\Local\Temp\ccoNFNvc.s 			page 12


 245 001c C361     		str	r3, [r0, #28]
 167:Core/Src/main.c ****   {
 246              		.loc 1 167 3 is_stmt 1 view .LVU66
 167:Core/Src/main.c ****   {
 247              		.loc 1 167 7 is_stmt 0 view .LVU67
 248 001e FFF7FEFF 		bl	HAL_UART_Init
 249              	.LVL4:
 167:Core/Src/main.c ****   {
 250              		.loc 1 167 6 view .LVU68
 251 0022 00B9     		cbnz	r0, .L10
 175:Core/Src/main.c **** 
 252              		.loc 1 175 1 view .LVU69
 253 0024 08BD     		pop	{r3, pc}
 254              	.L10:
 169:Core/Src/main.c ****   }
 255              		.loc 1 169 5 is_stmt 1 view .LVU70
 256 0026 FFF7FEFF 		bl	Error_Handler
 257              	.LVL5:
 258              	.L12:
 259 002a 00BF     		.align	2
 260              	.L11:
 261 002c 00000000 		.word	.LANCHOR0
 262 0030 00380140 		.word	1073821696
 263              		.cfi_endproc
 264              	.LFE67:
 266              		.section	.text.SystemClock_Config,"ax",%progbits
 267              		.align	1
 268              		.global	SystemClock_Config
 269              		.syntax unified
 270              		.thumb
 271              		.thumb_func
 273              	SystemClock_Config:
 274              	.LFB66:
 111:Core/Src/main.c ****   RCC_OscInitTypeDef RCC_OscInitStruct = {0};
 275              		.loc 1 111 1 view -0
 276              		.cfi_startproc
 277              		@ args = 0, pretend = 0, frame = 64
 278              		@ frame_needed = 0, uses_anonymous_args = 0
 279 0000 00B5     		push	{lr}
 280              	.LCFI4:
 281              		.cfi_def_cfa_offset 4
 282              		.cfi_offset 14, -4
 283 0002 91B0     		sub	sp, sp, #68
 284              	.LCFI5:
 285              		.cfi_def_cfa_offset 72
 112:Core/Src/main.c ****   RCC_ClkInitTypeDef RCC_ClkInitStruct = {0};
 286              		.loc 1 112 3 view .LVU72
 112:Core/Src/main.c ****   RCC_ClkInitTypeDef RCC_ClkInitStruct = {0};
 287              		.loc 1 112 22 is_stmt 0 view .LVU73
 288 0004 2822     		movs	r2, #40
 289 0006 0021     		movs	r1, #0
 290 0008 06A8     		add	r0, sp, #24
 291 000a FFF7FEFF 		bl	memset
 292              	.LVL6:
 113:Core/Src/main.c **** 
 293              		.loc 1 113 3 is_stmt 1 view .LVU74
 113:Core/Src/main.c **** 
ARM GAS  C:\Users\ADMINI~1\AppData\Local\Temp\ccoNFNvc.s 			page 13


 294              		.loc 1 113 22 is_stmt 0 view .LVU75
 295 000e 0023     		movs	r3, #0
 296 0010 0193     		str	r3, [sp, #4]
 297 0012 0293     		str	r3, [sp, #8]
 298 0014 0393     		str	r3, [sp, #12]
 299 0016 0493     		str	r3, [sp, #16]
 300 0018 0593     		str	r3, [sp, #20]
 118:Core/Src/main.c ****   RCC_OscInitStruct.HSEState = RCC_HSE_ON;
 301              		.loc 1 118 3 is_stmt 1 view .LVU76
 118:Core/Src/main.c ****   RCC_OscInitStruct.HSEState = RCC_HSE_ON;
 302              		.loc 1 118 36 is_stmt 0 view .LVU77
 303 001a 0122     		movs	r2, #1
 304 001c 0692     		str	r2, [sp, #24]
 119:Core/Src/main.c ****   RCC_OscInitStruct.HSEPredivValue = RCC_HSE_PREDIV_DIV1;
 305              		.loc 1 119 3 is_stmt 1 view .LVU78
 119:Core/Src/main.c ****   RCC_OscInitStruct.HSEPredivValue = RCC_HSE_PREDIV_DIV1;
 306              		.loc 1 119 30 is_stmt 0 view .LVU79
 307 001e 4FF48033 		mov	r3, #65536
 308 0022 0793     		str	r3, [sp, #28]
 120:Core/Src/main.c ****   RCC_OscInitStruct.HSIState = RCC_HSI_ON;
 309              		.loc 1 120 3 is_stmt 1 view .LVU80
 121:Core/Src/main.c ****   RCC_OscInitStruct.PLL.PLLState = RCC_PLL_ON;
 310              		.loc 1 121 3 view .LVU81
 121:Core/Src/main.c ****   RCC_OscInitStruct.PLL.PLLState = RCC_PLL_ON;
 311              		.loc 1 121 30 is_stmt 0 view .LVU82
 312 0024 0A92     		str	r2, [sp, #40]
 122:Core/Src/main.c ****   RCC_OscInitStruct.PLL.PLLSource = RCC_PLLSOURCE_HSE;
 313              		.loc 1 122 3 is_stmt 1 view .LVU83
 122:Core/Src/main.c ****   RCC_OscInitStruct.PLL.PLLSource = RCC_PLLSOURCE_HSE;
 314              		.loc 1 122 34 is_stmt 0 view .LVU84
 315 0026 0222     		movs	r2, #2
 316 0028 0D92     		str	r2, [sp, #52]
 123:Core/Src/main.c ****   RCC_OscInitStruct.PLL.PLLMUL = RCC_PLL_MUL9;
 317              		.loc 1 123 3 is_stmt 1 view .LVU85
 123:Core/Src/main.c ****   RCC_OscInitStruct.PLL.PLLMUL = RCC_PLL_MUL9;
 318              		.loc 1 123 35 is_stmt 0 view .LVU86
 319 002a 0E93     		str	r3, [sp, #56]
 124:Core/Src/main.c ****   if (HAL_RCC_OscConfig(&RCC_OscInitStruct) != HAL_OK)
 320              		.loc 1 124 3 is_stmt 1 view .LVU87
 124:Core/Src/main.c ****   if (HAL_RCC_OscConfig(&RCC_OscInitStruct) != HAL_OK)
 321              		.loc 1 124 32 is_stmt 0 view .LVU88
 322 002c 4FF4E013 		mov	r3, #1835008
 323 0030 0F93     		str	r3, [sp, #60]
 125:Core/Src/main.c ****   {
 324              		.loc 1 125 3 is_stmt 1 view .LVU89
 125:Core/Src/main.c ****   {
 325              		.loc 1 125 7 is_stmt 0 view .LVU90
 326 0032 06A8     		add	r0, sp, #24
 327 0034 FFF7FEFF 		bl	HAL_RCC_OscConfig
 328              	.LVL7:
 125:Core/Src/main.c ****   {
 329              		.loc 1 125 6 view .LVU91
 330 0038 80B9     		cbnz	r0, .L17
 131:Core/Src/main.c ****                               |RCC_CLOCKTYPE_PCLK1|RCC_CLOCKTYPE_PCLK2;
 331              		.loc 1 131 3 is_stmt 1 view .LVU92
 131:Core/Src/main.c ****                               |RCC_CLOCKTYPE_PCLK1|RCC_CLOCKTYPE_PCLK2;
 332              		.loc 1 131 31 is_stmt 0 view .LVU93
ARM GAS  C:\Users\ADMINI~1\AppData\Local\Temp\ccoNFNvc.s 			page 14


 333 003a 0F23     		movs	r3, #15
 334 003c 0193     		str	r3, [sp, #4]
 133:Core/Src/main.c ****   RCC_ClkInitStruct.AHBCLKDivider = RCC_SYSCLK_DIV1;
 335              		.loc 1 133 3 is_stmt 1 view .LVU94
 133:Core/Src/main.c ****   RCC_ClkInitStruct.AHBCLKDivider = RCC_SYSCLK_DIV1;
 336              		.loc 1 133 34 is_stmt 0 view .LVU95
 337 003e 0221     		movs	r1, #2
 338 0040 0291     		str	r1, [sp, #8]
 134:Core/Src/main.c ****   RCC_ClkInitStruct.APB1CLKDivider = RCC_HCLK_DIV2;
 339              		.loc 1 134 3 is_stmt 1 view .LVU96
 134:Core/Src/main.c ****   RCC_ClkInitStruct.APB1CLKDivider = RCC_HCLK_DIV2;
 340              		.loc 1 134 35 is_stmt 0 view .LVU97
 341 0042 0023     		movs	r3, #0
 342 0044 0393     		str	r3, [sp, #12]
 135:Core/Src/main.c ****   RCC_ClkInitStruct.APB2CLKDivider = RCC_HCLK_DIV1;
 343              		.loc 1 135 3 is_stmt 1 view .LVU98
 135:Core/Src/main.c ****   RCC_ClkInitStruct.APB2CLKDivider = RCC_HCLK_DIV1;
 344              		.loc 1 135 36 is_stmt 0 view .LVU99
 345 0046 4FF48062 		mov	r2, #1024
 346 004a 0492     		str	r2, [sp, #16]
 136:Core/Src/main.c **** 
 347              		.loc 1 136 3 is_stmt 1 view .LVU100
 136:Core/Src/main.c **** 
 348              		.loc 1 136 36 is_stmt 0 view .LVU101
 349 004c 0593     		str	r3, [sp, #20]
 138:Core/Src/main.c ****   {
 350              		.loc 1 138 3 is_stmt 1 view .LVU102
 138:Core/Src/main.c ****   {
 351              		.loc 1 138 7 is_stmt 0 view .LVU103
 352 004e 01A8     		add	r0, sp, #4
 353 0050 FFF7FEFF 		bl	HAL_RCC_ClockConfig
 354              	.LVL8:
 138:Core/Src/main.c ****   {
 355              		.loc 1 138 6 view .LVU104
 356 0054 20B9     		cbnz	r0, .L18
 142:Core/Src/main.c **** 
 357              		.loc 1 142 1 view .LVU105
 358 0056 11B0     		add	sp, sp, #68
 359              	.LCFI6:
 360              		.cfi_remember_state
 361              		.cfi_def_cfa_offset 4
 362              		@ sp needed
 363 0058 5DF804FB 		ldr	pc, [sp], #4
 364              	.L17:
 365              	.LCFI7:
 366              		.cfi_restore_state
 127:Core/Src/main.c ****   }
 367              		.loc 1 127 5 is_stmt 1 view .LVU106
 368 005c FFF7FEFF 		bl	Error_Handler
 369              	.LVL9:
 370              	.L18:
 140:Core/Src/main.c ****   }
 371              		.loc 1 140 5 view .LVU107
 372 0060 FFF7FEFF 		bl	Error_Handler
 373              	.LVL10:
 374              		.cfi_endproc
 375              	.LFE66:
ARM GAS  C:\Users\ADMINI~1\AppData\Local\Temp\ccoNFNvc.s 			page 15


 377              		.section	.text.main,"ax",%progbits
 378              		.align	1
 379              		.global	main
 380              		.syntax unified
 381              		.thumb
 382              		.thumb_func
 384              	main:
 385              	.LFB65:
  66:Core/Src/main.c ****   /* USER CODE BEGIN 1 */
 386              		.loc 1 66 1 view -0
 387              		.cfi_startproc
 388              		@ Volatile: function does not return.
 389              		@ args = 0, pretend = 0, frame = 0
 390              		@ frame_needed = 0, uses_anonymous_args = 0
 391 0000 08B5     		push	{r3, lr}
 392              	.LCFI8:
 393              		.cfi_def_cfa_offset 8
 394              		.cfi_offset 3, -8
 395              		.cfi_offset 14, -4
  74:Core/Src/main.c **** 
 396              		.loc 1 74 3 view .LVU109
 397 0002 FFF7FEFF 		bl	HAL_Init
 398              	.LVL11:
  81:Core/Src/main.c **** 
 399              		.loc 1 81 3 view .LVU110
 400 0006 FFF7FEFF 		bl	SystemClock_Config
 401              	.LVL12:
  88:Core/Src/main.c ****   MX_USART1_UART_Init();
 402              		.loc 1 88 3 view .LVU111
 403 000a FFF7FEFF 		bl	MX_GPIO_Init
 404              	.LVL13:
  89:Core/Src/main.c ****   /* USER CODE BEGIN 2 */
 405              		.loc 1 89 3 view .LVU112
 406 000e FFF7FEFF 		bl	MX_USART1_UART_Init
 407              	.LVL14:
 408              	.L20:
  96:Core/Src/main.c ****   {
 409              		.loc 1 96 3 discriminator 1 view .LVU113
  99:Core/Src/main.c ****     HAL_Delay(500);
 410              		.loc 1 99 5 discriminator 1 view .LVU114
 411 0012 4FF48071 		mov	r1, #256
 412 0016 0448     		ldr	r0, .L22
 413 0018 FFF7FEFF 		bl	HAL_GPIO_TogglePin
 414              	.LVL15:
 100:Core/Src/main.c ****     /* USER CODE BEGIN 3 */
 415              		.loc 1 100 5 discriminator 1 view .LVU115
 416 001c 4FF4FA70 		mov	r0, #500
 417 0020 FFF7FEFF 		bl	HAL_Delay
 418              	.LVL16:
  96:Core/Src/main.c ****   {
 419              		.loc 1 96 9 discriminator 1 view .LVU116
 420 0024 F5E7     		b	.L20
 421              	.L23:
 422 0026 00BF     		.align	2
 423              	.L22:
 424 0028 00080140 		.word	1073809408
 425              		.cfi_endproc
ARM GAS  C:\Users\ADMINI~1\AppData\Local\Temp\ccoNFNvc.s 			page 16


 426              	.LFE65:
 428              		.global	huart1
 429              		.section	.bss.huart1,"aw",%nobits
 430              		.align	2
 431              		.set	.LANCHOR0,. + 0
 434              	huart1:
 435 0000 00000000 		.space	68
 435      00000000 
 435      00000000 
 435      00000000 
 435      00000000 
 436              		.text
 437              	.Letext0:
 438              		.file 3 "e:\\program files\\dev\\tools\\gcc-arm-none-eabi-10.3-2021.10\\arm-none-eabi\\include\\ma
 439              		.file 4 "e:\\program files\\dev\\tools\\gcc-arm-none-eabi-10.3-2021.10\\arm-none-eabi\\include\\sy
 440              		.file 5 "Drivers/CMSIS/Device/ST/STM32F1xx/Include/stm32f103xe.h"
 441              		.file 6 "Drivers/STM32F1xx_HAL_Driver/Inc/stm32f1xx_hal_def.h"
 442              		.file 7 "Drivers/STM32F1xx_HAL_Driver/Inc/stm32f1xx_hal_rcc.h"
 443              		.file 8 "Drivers/STM32F1xx_HAL_Driver/Inc/stm32f1xx_hal_rcc_ex.h"
 444              		.file 9 "Drivers/STM32F1xx_HAL_Driver/Inc/stm32f1xx_hal_gpio.h"
 445              		.file 10 "Drivers/STM32F1xx_HAL_Driver/Inc/stm32f1xx_hal_dma.h"
 446              		.file 11 "Drivers/STM32F1xx_HAL_Driver/Inc/stm32f1xx_hal_uart.h"
 447              		.file 12 "Drivers/STM32F1xx_HAL_Driver/Inc/stm32f1xx_hal.h"
 448              		.file 13 "<built-in>"
ARM GAS  C:\Users\ADMINI~1\AppData\Local\Temp\ccoNFNvc.s 			page 17

